target datalayout = "e-m:e-p270:32:32-p271:32:32-p272:64:64-i64:64-i128:128-f80:128-n8:16:32:64-S128"
target triple = "x86_64-pc-linux-gnu"

%struct.DdManager = type { %struct.DdNode, ptr, ptr, ptr, ptr, ptr, ptr, ptr, i32, i32, double, double, double, i32, i32, i32, i32, i32, i32, ptr, ptr, %struct.DdSubtable, i32, i32, i32, i32, i32, i32, i32, double, i32, i32, i32, ptr, i64, double, i32, ptr, ptr, ptr, ptr, ptr, ptr, ptr, i32, ptr, ptr, ptr, ptr, ptr, ptr, i32, i32, i32, double, i32, i32, i32, i32, double, double, i32, i32, i32, i32, i32, i32, i32, i32, i32, ptr, ptr, i32, i32, i32, i32, i32, i32, ptr, ptr, ptr, ptr, ptr, ptr, ptr, ptr, i32, i64, i64, i64, i32, i64, i64, double, double, double, double, double, double, i32, ptr, ptr, i64 }
%struct.DdNode = type { i32, i32, ptr, %union.anon, i64 }
%union.anon = type { %struct.DdChildren }
%struct.DdChildren = type { ptr, ptr }
%struct.DdSubtable = type { ptr, i32, i32, i32, i32, i32, i32, i32, i32, i32, i32, i32 }

; Function Attrs: nounwind uwtable
define i32 @Cudd_SetVarMap(ptr noundef %0, ptr noundef %1, ptr noundef %2, i32 noundef %3) #0 {
  %5 = alloca i32, align 4
  %6 = alloca ptr, align 8
  %7 = alloca ptr, align 8
  %8 = alloca ptr, align 8
  %9 = alloca i32, align 4
  %10 = alloca i32, align 4
  %11 = alloca i32, align 4
  store ptr %0, ptr %6, align 8, !tbaa !3
  store ptr %1, ptr %7, align 8, !tbaa !44
  store ptr %2, ptr %8, align 8, !tbaa !44
  store i32 %3, ptr %9, align 4, !tbaa !10
  call void @llvm.lifetime.start.p0(i64 4, ptr %10) #6
  %12 = load ptr, ptr %6, align 8, !tbaa !3
  %13 = getelementptr inbounds nuw %struct.DdManager, ptr %12, i32 0, i32 42
  %14 = load ptr, ptr %13, align 8, !tbaa !49
  %15 = icmp ne ptr %14, null
  br i1 %15, label %16, label %18

16:                                               ; preds = %4
  %17 = load ptr, ptr %6, align 8, !tbaa !3
  call void @cuddCacheFlush(ptr noundef %17)
  br label %44

18:                                               ; preds = %4
  %19 = load ptr, ptr %6, align 8, !tbaa !3
  %20 = getelementptr inbounds nuw %struct.DdManager, ptr %19, i32 0, i32 17
  %21 = load i32, ptr %20, align 8, !tbaa !52
  %22 = sext i32 %21 to i64
  %23 = mul i64 4, %22
  %24 = call noalias ptr @malloc(i64 noundef %23) #7
  %25 = load ptr, ptr %6, align 8, !tbaa !3
  %26 = getelementptr inbounds nuw %struct.DdManager, ptr %25, i32 0, i32 42
  store ptr %24, ptr %26, align 8, !tbaa !49
  %27 = load ptr, ptr %6, align 8, !tbaa !3
  %28 = getelementptr inbounds nuw %struct.DdManager, ptr %27, i32 0, i32 42
  %29 = load ptr, ptr %28, align 8, !tbaa !49
  %30 = icmp eq ptr %29, null
  br i1 %30, label %31, label %34

31:                                               ; preds = %18
  %32 = load ptr, ptr %6, align 8, !tbaa !3
  %33 = getelementptr inbounds nuw %struct.DdManager, ptr %32, i32 0, i32 86
  store i32 1, ptr %33, align 8, !tbaa !45
  store i32 0, ptr %5, align 4
  store i32 1, ptr %11, align 4
  br label %110

34:                                               ; preds = %18
  %35 = load ptr, ptr %6, align 8, !tbaa !3
  %36 = getelementptr inbounds nuw %struct.DdManager, ptr %35, i32 0, i32 17
  %37 = load i32, ptr %36, align 8, !tbaa !52
  %38 = sext i32 %37 to i64
  %39 = mul i64 4, %38
  %40 = load ptr, ptr %6, align 8, !tbaa !3
  %41 = getelementptr inbounds nuw %struct.DdManager, ptr %40, i32 0, i32 87
  %42 = load i64, ptr %41, align 8, !tbaa !53
  %43 = add i64 %42, %39
  store i64 %43, ptr %41, align 8, !tbaa !53
  br label %44

44:                                               ; preds = %34, %16
  store i32 0, ptr %10, align 4, !tbaa !10
  br label %45

45:                                               ; preds = %59, %44
  %46 = load i32, ptr %10, align 4, !tbaa !10
  %47 = load ptr, ptr %6, align 8, !tbaa !3
  %48 = getelementptr inbounds nuw %struct.DdManager, ptr %47, i32 0, i32 15
  %49 = load i32, ptr %48, align 8, !tbaa !12
  %50 = icmp slt i32 %46, %49
  br i1 %50, label %51, label %62

51:                                               ; preds = %45
  %52 = load i32, ptr %10, align 4, !tbaa !10
  %53 = load ptr, ptr %6, align 8, !tbaa !3
  %54 = getelementptr inbounds nuw %struct.DdManager, ptr %53, i32 0, i32 42
  %55 = load ptr, ptr %54, align 8, !tbaa !49
  %56 = load i32, ptr %10, align 4, !tbaa !10
  %57 = sext i32 %56 to i64
  %58 = getelementptr inbounds i32, ptr %55, i64 %57
  store i32 %52, ptr %58, align 4, !tbaa !10
  br label %59

59:                                               ; preds = %51
  %60 = load i32, ptr %10, align 4, !tbaa !10
  %61 = add nsw i32 %60, 1
  store i32 %61, ptr %10, align 4, !tbaa !10
  br label %45, !llvm.loop !54

62:                                               ; preds = %45
  store i32 0, ptr %10, align 4, !tbaa !10
  br label %63

63:                                               ; preds = %106, %62
  %64 = load i32, ptr %10, align 4, !tbaa !10
  %65 = load i32, ptr %9, align 4, !tbaa !10
  %66 = icmp slt i32 %64, %65
  br i1 %66, label %67, label %109

67:                                               ; preds = %63
  %68 = load ptr, ptr %8, align 8, !tbaa !44
  %69 = load i32, ptr %10, align 4, !tbaa !10
  %70 = sext i32 %69 to i64
  %71 = getelementptr inbounds ptr, ptr %68, i64 %70
  %72 = load ptr, ptr %71, align 8, !tbaa !8
  %73 = getelementptr inbounds nuw %struct.DdNode, ptr %72, i32 0, i32 0
  %74 = load i32, ptr %73, align 8, !tbaa !33
  %75 = load ptr, ptr %6, align 8, !tbaa !3
  %76 = getelementptr inbounds nuw %struct.DdManager, ptr %75, i32 0, i32 42
  %77 = load ptr, ptr %76, align 8, !tbaa !49
  %78 = load ptr, ptr %7, align 8, !tbaa !44
  %79 = load i32, ptr %10, align 4, !tbaa !10
  %80 = sext i32 %79 to i64
  %81 = getelementptr inbounds ptr, ptr %78, i64 %80
  %82 = load ptr, ptr %81, align 8, !tbaa !8
  %83 = getelementptr inbounds nuw %struct.DdNode, ptr %82, i32 0, i32 0
  %84 = load i32, ptr %83, align 8, !tbaa !33
  %85 = zext i32 %84 to i64
  %86 = getelementptr inbounds nuw i32, ptr %77, i64 %85
  store i32 %74, ptr %86, align 4, !tbaa !10
  %87 = load ptr, ptr %7, align 8, !tbaa !44
  %88 = load i32, ptr %10, align 4, !tbaa !10
  %89 = sext i32 %88 to i64
  %90 = getelementptr inbounds ptr, ptr %87, i64 %89
  %91 = load ptr, ptr %90, align 8, !tbaa !8
  %92 = getelementptr inbounds nuw %struct.DdNode, ptr %91, i32 0, i32 0
  %93 = load i32, ptr %92, align 8, !tbaa !33
  %94 = load ptr, ptr %6, align 8, !tbaa !3
  %95 = getelementptr inbounds nuw %struct.DdManager, ptr %94, i32 0, i32 42
  %96 = load ptr, ptr %95, align 8, !tbaa !49
  %97 = load ptr, ptr %8, align 8, !tbaa !44
  %98 = load i32, ptr %10, align 4, !tbaa !10
  %99 = sext i32 %98 to i64
  %100 = getelementptr inbounds ptr, ptr %97, i64 %99
  %101 = load ptr, ptr %100, align 8, !tbaa !8
  %102 = getelementptr inbounds nuw %struct.DdNode, ptr %101, i32 0, i32 0
  %103 = load i32, ptr %102, align 8, !tbaa !33
  %104 = zext i32 %103 to i64
  %105 = getelementptr inbounds nuw i32, ptr %96, i64 %104
  store i32 %93, ptr %105, align 4, !tbaa !10
  br label %106

106:                                              ; preds = %67
  %107 = load i32, ptr %10, align 4, !tbaa !10
  %108 = add nsw i32 %107, 1
  store i32 %108, ptr %10, align 4, !tbaa !10
  br label %63, !llvm.loop !55

109:                                              ; preds = %63
  store i32 1, ptr %5, align 4
  store i32 1, ptr %11, align 4
  br label %110

110:                                              ; preds = %109, %31
  call void @llvm.lifetime.end.p0(i64 4, ptr %10) #6
  %111 = load i32, ptr %5, align 4
  ret i32 %111
}