; Function Attrs: nounwind uwtable
define range(i32 0, 2) i32 @Cudd_SetVarMap(ptr noundef %0, ptr noundef readonly captures(none) %1, ptr noundef readonly captures(none) %2, i32 noundef %3) local_unnamed_addr #0 {
  %5 = getelementptr inbounds nuw i8, ptr %0, i64 352
  %6 = load ptr, ptr %5, align 8, !tbaa !42
  %.not = icmp eq ptr %6, null
  br i1 %.not, label %8, label %7

7:                                                ; preds = %4
  tail call void @cuddCacheFlush(ptr noundef nonnull %0) #7
  br label %21

8:                                                ; preds = %4
  %9 = getelementptr inbounds nuw i8, ptr %0, i64 144
  %10 = load i32, ptr %9, align 8, !tbaa !48
  %11 = sext i32 %10 to i64
  %12 = shl nsw i64 %11, 2
  %13 = tail call noalias ptr @malloc(i64 noundef %12) #8
  store ptr %13, ptr %5, align 8, !tbaa !42
  %14 = icmp eq ptr %13, null
  br i1 %14, label %15, label %17

15:                                               ; preds = %8
  %16 = getelementptr inbounds nuw i8, ptr %0, i64 624
  store i32 1, ptr %16, align 8, !tbaa !38
  br label %.loopexit

17:                                               ; preds = %8
  %18 = getelementptr inbounds nuw i8, ptr %0, i64 632
  %19 = load i64, ptr %18, align 8, !tbaa !49
  %20 = add i64 %19, %12
  store i64 %20, ptr %18, align 8, !tbaa !49
  br label %21

21:                                               ; preds = %17, %7
  %22 = getelementptr inbounds nuw i8, ptr %0, i64 136
  %23 = load i32, ptr %22, align 8, !tbaa !3
  %24 = icmp sgt i32 %23, 0
  br i1 %24, label %.lr.ph, label %.preheader

.lr.ph:                                           ; preds = %21
  %25 = load ptr, ptr %5, align 8, !tbaa !42
  br label %28

.preheader:                                       ; preds = %28, %21
  %26 = icmp sgt i32 %3, 0
  br i1 %26, label %.lr.ph30, label %.loopexit

.lr.ph30:                                         ; preds = %.preheader
  %27 = load ptr, ptr %5, align 8, !tbaa !42
  %wide.trip.count = zext nneg i32 %3 to i64
  br label %34

28:                                               ; preds = %.lr.ph, %28
  %indvars.iv = phi i64 [ 0, %.lr.ph ], [ %indvars.iv.next, %28 ]
  %29 = getelementptr inbounds nuw i32, ptr %25, i64 %indvars.iv
  %30 = trunc nuw nsw i64 %indvars.iv to i32
  store i32 %30, ptr %29, align 4, !tbaa !31
  %indvars.iv.next = add nuw nsw i64 %indvars.iv, 1
  %31 = load i32, ptr %22, align 8, !tbaa !3
  %32 = sext i32 %31 to i64
  %33 = icmp slt i64 %indvars.iv.next, %32
  br i1 %33, label %28, label %.preheader, !llvm.loop !50

34:                                               ; preds = %.lr.ph30, %34
  %indvars.iv32 = phi i64 [ 0, %.lr.ph30 ], [ %indvars.iv.next33, %34 ]
  %35 = getelementptr inbounds nuw ptr, ptr %2, i64 %indvars.iv32
  %36 = load ptr, ptr %35, align 8, !tbaa !25
  %37 = load i32, ptr %36, align 8, !tbaa !30
  %38 = getelementptr inbounds nuw ptr, ptr %1, i64 %indvars.iv32
  %39 = load ptr, ptr %38, align 8, !tbaa !25
  %40 = load i32, ptr %39, align 8, !tbaa !30
  %41 = zext i32 %40 to i64
  %42 = getelementptr inbounds nuw i32, ptr %27, i64 %41
  store i32 %37, ptr %42, align 4, !tbaa !31
  %43 = load i32, ptr %39, align 8, !tbaa !30
  %44 = zext i32 %37 to i64
  %45 = getelementptr inbounds nuw i32, ptr %27, i64 %44
  store i32 %43, ptr %45, align 4, !tbaa !31
  %indvars.iv.next33 = add nuw nsw i64 %indvars.iv32, 1
  %exitcond.not = icmp eq i64 %indvars.iv.next33, %wide.trip.count
  br i1 %exitcond.not, label %.loopexit, label %34, !llvm.loop !51

.loopexit:                                        ; preds = %34, %.preheader, %15
  %.027 = phi i32 [ 0, %15 ], [ 1, %.preheader ], [ 1, %34 ]
  ret i32 %.027
}